target datalayout = "e-m:e-p270:32:32-p271:32:32-p272:64:64-i64:64-i128:128-f80:128-n8:16:32:64-S128"
target triple = "x86_64-pc-linux-gnu"

%struct.utsname = type { [65 x i8], [65 x i8], [65 x i8], [65 x i8], [65 x i8], [65 x i8] }

@uv__kernel_version.cached_version = internal global i32 0, align 4
@.str = private unnamed_addr constant [24 x i8] c"/proc/version_signature\00", align 1
@.str.1 = private unnamed_addr constant [20 x i8] c"Ubuntu %*s %u.%u.%u\00", align 1
@.str.2 = private unnamed_addr constant [8 x i8] c"Debian \00", align 1
@.str.3 = private unnamed_addr constant [16 x i8] c"Debian %u.%u.%u\00", align 1
@.str.4 = private unnamed_addr constant [9 x i8] c"%u.%u.%u\00", align 1

; Function Attrs: nounwind uwtable
define hidden i32 @uv__kernel_version() #0 {
  %1 = alloca i32, align 4
  %2 = alloca %struct.utsname, align 1
  %3 = alloca i32, align 4
  %4 = alloca i32, align 4
  %5 = alloca i32, align 4
  %6 = alloca i32, align 4
  %7 = alloca [256 x i8], align 16
  %8 = alloca ptr, align 8
  %9 = alloca i32, align 4
  %10 = alloca i32, align 4
  %11 = alloca i32, align 4
  call void @llvm.lifetime.start.p0(i64 390, ptr %2) #12
  call void @llvm.lifetime.start.p0(i64 4, ptr %3) #12
  call void @llvm.lifetime.start.p0(i64 4, ptr %4) #12
  call void @llvm.lifetime.start.p0(i64 4, ptr %5) #12
  call void @llvm.lifetime.start.p0(i64 4, ptr %6) #12
  call void @llvm.lifetime.start.p0(i64 256, ptr %7) #12
  call void @llvm.lifetime.start.p0(i64 8, ptr %8) #12
  %12 = load atomic i32, ptr @uv__kernel_version.cached_version monotonic, align 4
  store i32 %12, ptr %9, align 4
  %13 = load i32, ptr %9, align 4
  store i32 %13, ptr %3, align 4
  %14 = load i32, ptr %3, align 4
  %15 = icmp ne i32 %14, 0
  br i1 %15, label %16, label %18

16:                                               ; preds = %0
  %17 = load i32, ptr %3, align 4
  store i32 %17, ptr %1, align 4
  store i32 1, ptr %10, align 4
  br label %82

18:                                               ; preds = %0
  %19 = getelementptr inbounds [256 x i8], ptr %7, i64 0, i64 0
  %20 = call i32 @uv__slurp(ptr noundef @.str, ptr noundef %19, i64 noundef 256)
  %21 = icmp eq i32 0, %20
  br i1 %21, label %22, label %28

22:                                               ; preds = %18
  %23 = getelementptr inbounds [256 x i8], ptr %7, i64 0, i64 0
  %24 = call i32 (ptr, ptr, ...) @sscanf(ptr noundef %23, ptr noundef @.str.1, ptr noundef %4, ptr noundef %5, ptr noundef %6) #12
  %25 = icmp eq i32 3, %24
  br i1 %25, label %26, label %27

26:                                               ; preds = %22
  br label %71

27:                                               ; preds = %22
  br label %28

28:                                               ; preds = %27, %18
  %29 = call i32 @uname(ptr noundef %2) #12
  %30 = icmp eq i32 -1, %29
  br i1 %30, label %31, label %32

31:                                               ; preds = %28
  store i32 0, ptr %1, align 4
  store i32 1, ptr %10, align 4
  br label %82

32:                                               ; preds = %28
  %33 = getelementptr inbounds nuw %struct.utsname, ptr %2, i32 0, i32 3
  %34 = getelementptr inbounds [65 x i8], ptr %33, i64 0, i64 0
  %35 = call ptr @strstr(ptr noundef %34, ptr noundef @.str.2) #13
  store ptr %35, ptr %8, align 8
  %36 = load ptr, ptr %8, align 8
  %37 = icmp ne ptr %36, null
  br i1 %37, label %38, label %44

38:                                               ; preds = %32
  %39 = load ptr, ptr %8, align 8
  %40 = call i32 (ptr, ptr, ...) @sscanf(ptr noundef %39, ptr noundef @.str.3, ptr noundef %4, ptr noundef %5, ptr noundef %6) #12
  %41 = icmp eq i32 3, %40
  br i1 %41, label %42, label %43

42:                                               ; preds = %38
  br label %71

43:                                               ; preds = %38
  br label %44

44:                                               ; preds = %43, %32
  %45 = getelementptr inbounds nuw %struct.utsname, ptr %2, i32 0, i32 2
  %46 = getelementptr inbounds [65 x i8], ptr %45, i64 0, i64 0
  %47 = call i32 (ptr, ptr, ...) @sscanf(ptr noundef %46, ptr noundef @.str.4, ptr noundef %4, ptr noundef %5, ptr noundef %6) #12
  %48 = icmp ne i32 3, %47
  br i1 %48, label %49, label %50

49:                                               ; preds = %44
  store i32 0, ptr %1, align 4
  store i32 1, ptr %10, align 4
  br label %82

50:                                               ; preds = %44
  %51 = load i32, ptr %4, align 4
  %52 = icmp eq i32 %51, 2
  br i1 %52, label %53, label %70

53:                                               ; preds = %50
  %54 = load i32, ptr %5, align 4
  %55 = icmp eq i32 %54, 6
  br i1 %55, label %56, label %70

56:                                               ; preds = %53
  %57 = load i32, ptr %6, align 4
  %58 = icmp uge i32 %57, 60
  br i1 %58, label %59, label %62

59:                                               ; preds = %56
  store i32 4, ptr %4, align 4
  %60 = load i32, ptr %6, align 4
  %61 = sub i32 %60, 60
  store i32 %61, ptr %5, align 4
  store i32 0, ptr %6, align 4
  br label %69

62:                                               ; preds = %56
  %63 = load i32, ptr %6, align 4
  %64 = icmp uge i32 %63, 40
  br i1 %64, label %65, label %68

65:                                               ; preds = %62
  store i32 3, ptr %4, align 4
  %66 = load i32, ptr %6, align 4
  %67 = sub i32 %66, 40
  store i32 %67, ptr %5, align 4
  store i32 0, ptr %6, align 4
  br label %68

68:                                               ; preds = %65, %62
  br label %69

69:                                               ; preds = %68, %59
  br label %70

70:                                               ; preds = %69, %53, %50
  br label %71

71:                                               ; preds = %70, %42, %26
  %72 = load i32, ptr %4, align 4
  %73 = mul i32 %72, 65536
  %74 = load i32, ptr %5, align 4
  %75 = mul i32 %74, 256
  %76 = add i32 %73, %75
  %77 = load i32, ptr %6, align 4
  %78 = add i32 %76, %77
  store i32 %78, ptr %3, align 4
  %79 = load i32, ptr %3, align 4
  store i32 %79, ptr %11, align 4
  %80 = load i32, ptr %11, align 4
  store atomic i32 %80, ptr @uv__kernel_version.cached_version monotonic, align 4
  %81 = load i32, ptr %3, align 4
  store i32 %81, ptr %1, align 4
  store i32 1, ptr %10, align 4
  br label %82

82:                                               ; preds = %71, %49, %31, %16
  call void @llvm.lifetime.end.p0(i64 8, ptr %8) #12
  call void @llvm.lifetime.end.p0(i64 256, ptr %7) #12
  call void @llvm.lifetime.end.p0(i64 4, ptr %6) #12
  call void @llvm.lifetime.end.p0(i64 4, ptr %5) #12
  call void @llvm.lifetime.end.p0(i64 4, ptr %4) #12
  call void @llvm.lifetime.end.p0(i64 4, ptr %3) #12
  call void @llvm.lifetime.end.p0(i64 390, ptr %2) #12
  %83 = load i32, ptr %1, align 4
  ret i32 %83
}