; Function Attrs: nounwind uwtable
define hidden i32 @uv__kernel_version() local_unnamed_addr #0 {
  %1 = alloca %struct.utsname, align 1
  %2 = alloca i32, align 4
  %3 = alloca i32, align 4
  %4 = alloca i32, align 4
  %5 = alloca [256 x i8], align 16
  call void @llvm.lifetime.start.p0(i64 390, ptr nonnull %1) #17
  call void @llvm.lifetime.start.p0(i64 4, ptr nonnull %2) #17
  call void @llvm.lifetime.start.p0(i64 4, ptr nonnull %3) #17
  call void @llvm.lifetime.start.p0(i64 4, ptr nonnull %4) #17
  call void @llvm.lifetime.start.p0(i64 256, ptr nonnull %5) #17
  %6 = load atomic i32, ptr @uv__kernel_version.cached_version monotonic, align 4
  %.not = icmp eq i32 %6, 0
  br i1 %.not, label %7, label %44

7:                                                ; preds = %0
  %8 = call i32 @uv__slurp(ptr noundef nonnull @.str, ptr noundef nonnull %5, i64 noundef 256) #17
  %9 = icmp eq i32 %8, 0
  br i1 %9, label %10, label %13

10:                                               ; preds = %7
  %11 = call i32 (ptr, ptr, ...) @sscanf(ptr noundef nonnull %5, ptr noundef nonnull @.str.1, ptr noundef nonnull %2, ptr noundef nonnull %3, ptr noundef nonnull %4) #17
  %12 = icmp eq i32 %11, 3
  br i1 %12, label %36, label %13

13:                                               ; preds = %10, %7
  %14 = call i32 @uname(ptr noundef nonnull %1) #17
  %15 = icmp eq i32 %14, -1
  br i1 %15, label %44, label %16

16:                                               ; preds = %13
  %17 = getelementptr inbounds nuw i8, ptr %1, i64 195
  %18 = call ptr @strstr(ptr noundef nonnull dereferenceable(1) %17, ptr noundef nonnull dereferenceable(1) @.str.2) #18
  %.not12 = icmp eq ptr %18, null
  br i1 %.not12, label %22, label %19

19:                                               ; preds = %16
  %20 = call i32 (ptr, ptr, ...) @sscanf(ptr noundef nonnull %18, ptr noundef nonnull @.str.3, ptr noundef nonnull %2, ptr noundef nonnull %3, ptr noundef nonnull %4) #17
  %21 = icmp eq i32 %20, 3
  br i1 %21, label %36, label %22

22:                                               ; preds = %19, %16
  %23 = getelementptr inbounds nuw i8, ptr %1, i64 130
  %24 = call i32 (ptr, ptr, ...) @sscanf(ptr noundef nonnull %23, ptr noundef nonnull @.str.4, ptr noundef nonnull %2, ptr noundef nonnull %3, ptr noundef nonnull %4) #17
  %.not13 = icmp eq i32 %24, 3
  br i1 %.not13, label %25, label %44

25:                                               ; preds = %22
  %26 = load i32, ptr %2, align 4
  %27 = icmp eq i32 %26, 2
  %28 = load i32, ptr %3, align 4
  %29 = icmp eq i32 %28, 6
  %or.cond = select i1 %27, i1 %29, i1 false
  br i1 %or.cond, label %30, label %36

30:                                               ; preds = %25
  %31 = load i32, ptr %4, align 4
  %32 = icmp ugt i32 %31, 59
  br i1 %32, label %.sink.split, label %33

33:                                               ; preds = %30
  %34 = icmp samesign ugt i32 %31, 39
  br i1 %34, label %.sink.split, label %36

.sink.split:                                      ; preds = %33, %30
  %.sink = phi i32 [ 4, %30 ], [ 3, %33 ]
  %.sink14 = phi i32 [ -60, %30 ], [ -40, %33 ]
  store i32 %.sink, ptr %2, align 4
  %35 = add i32 %31, %.sink14
  store i32 %35, ptr %3, align 4
  store i32 0, ptr %4, align 4
  br label %36

36:                                               ; preds = %.sink.split, %25, %33, %19, %10
  %37 = load i32, ptr %2, align 4
  %38 = shl i32 %37, 16
  %39 = load i32, ptr %3, align 4
  %40 = shl i32 %39, 8
  %41 = add i32 %40, %38
  %42 = load i32, ptr %4, align 4
  %43 = add i32 %41, %42
  store atomic i32 %43, ptr @uv__kernel_version.cached_version monotonic, align 4
  br label %44

44:                                               ; preds = %22, %13, %0, %36
  %.0 = phi i32 [ %43, %36 ], [ %6, %0 ], [ 0, %13 ], [ 0, %22 ]
  call void @llvm.lifetime.end.p0(i64 256, ptr nonnull %5) #17
  call void @llvm.lifetime.end.p0(i64 4, ptr nonnull %4) #17
  call void @llvm.lifetime.end.p0(i64 4, ptr nonnull %3) #17
  call void @llvm.lifetime.end.p0(i64 4, ptr nonnull %2) #17
  call void @llvm.lifetime.end.p0(i64 390, ptr nonnull %1) #17
  ret i32 %.0
}